target datalayout = "e-m:e-p270:32:32-p271:32:32-p272:64:64-i64:64-i128:128-f80:128-n8:16:32:64-S128"
target triple = "x86_64-pc-linux-gnu"

%struct.TCGHelperInfo = type { ptr, ptr, i64, i64, [14 x %struct.TCGCallArgumentLoc] }
%struct.TCGCallArgumentLoc = type { i32 }
%struct.TCGContext = type { ptr, ptr, ptr, ptr, ptr, i32, i32, i32, i32, i32, i32, i32, i8, i8, i8, i32, i32, i64, i64, i64, ptr, ptr, ptr, ptr, ptr, i64, ptr, ptr, ptr, ptr, %struct.anon, ptr, ptr, ptr, ptr, ptr, [6 x ptr], [6 x %struct.TCGTempSet], [512 x %struct.TCGTemp], %union.anon, %union.anon, %struct.anon.0, ptr, [32 x ptr], [512 x i16], ptr, [1 x %struct.__jmp_buf_tag] }
%struct.anon = type { ptr, ptr }
%struct.TCGTempSet = type { [8 x i64] }
%struct.TCGTemp = type { i64, i64, ptr, i64, ptr, i64, ptr }
%union.anon = type { %struct.QTailQLink }
%struct.QTailQLink = type { ptr, ptr }
%struct.anon.0 = type { ptr, ptr }
%struct.__jmp_buf_tag = type { [8 x i64], i32, %struct.__sigset_t }
%struct.__sigset_t = type { [16 x i64] }
%struct.TranslationBlock = type { i64, i64, i32, i32, i16, i16, %struct.tb_tc, %struct.IntervalTreeNode, %struct.QemuSpin, [2 x i16], [2 x i16], [2 x i64], i64, [2 x i64], [2 x i64] }
%struct.tb_tc = type { ptr, i64 }
%struct.IntervalTreeNode = type { %struct.RBNode, i64, i64, i64 }
%struct.RBNode = type { i64, ptr, ptr }
%struct.QemuSpin = type { i32 }

@tcg_ctx = external thread_local global ptr, align 8
@.str = private unnamed_addr constant [26 x i8] c"../qemu/tcg/tcg-op-ldst.c\00", align 1
@__func__.tcg_canonicalize_memop = private unnamed_addr constant [23 x i8] c"tcg_canonicalize_memop\00", align 1
@tcg_use_softmmu = external global i8, align 1
@tcg_env = external global ptr, align 8
@helper_info_exit_atomic = external global %struct.TCGHelperInfo, align 8

; Function Attrs: inlinehint nounwind sspstrong uwtable
define internal ptr @tcgv_i32_temp(ptr noundef %0) #5 {
  %2 = alloca ptr, align 8
  store ptr %0, ptr %2, align 8
  %3 = call align 8 ptr @llvm.threadlocal.address.p0(ptr align 8 @tcg_ctx)
  %4 = load ptr, ptr %3, align 8
  %5 = load ptr, ptr %2, align 8
  %6 = ptrtoint ptr %5 to i64
  %7 = getelementptr inbounds nuw i8, ptr %4, i64 %6
  ret ptr %7
}

; Function Attrs: inlinehint nounwind sspstrong uwtable
define internal i64 @temp_idx(ptr noundef %0) #5 {
  %2 = alloca ptr, align 8
  store ptr %0, ptr %2, align 8
  %3 = load ptr, ptr %2, align 8
  %4 = call align 8 ptr @llvm.threadlocal.address.p0(ptr align 8 @tcg_ctx)
  %5 = load ptr, ptr %4, align 8
  %6 = getelementptr inbounds nuw %struct.TCGContext, ptr %5, i32 0, i32 38
  %7 = getelementptr inbounds [512 x %struct.TCGTemp], ptr %6, i64 0, i64 0
  %8 = ptrtoint ptr %3 to i64
  %9 = ptrtoint ptr %7 to i64
  %10 = sub i64 %8, %9
  %11 = sdiv exact i64 %10, 56
  ret i64 %11
}

; Function Attrs: inlinehint nounwind sspstrong uwtable
define internal ptr @tcgv_ptr_temp(ptr noundef %0) #5 {
  %2 = alloca ptr, align 8
  store ptr %0, ptr %2, align 8
  %3 = load ptr, ptr %2, align 8
  %4 = call ptr @tcgv_i32_temp(ptr noundef %3)
  ret ptr %4
}

; Function Attrs: inlinehint nounwind sspstrong uwtable
define internal ptr @temp_tcgv_i64(ptr noundef %0) #5 {
  %2 = alloca ptr, align 8
  store ptr %0, ptr %2, align 8
  %3 = load ptr, ptr %2, align 8
  %4 = call ptr @temp_tcgv_i32(ptr noundef %3)
  ret ptr %4
}

; Function Attrs: inlinehint nounwind sspstrong uwtable
define internal ptr @temp_tcgv_i32(ptr noundef %0) #5 {
  %2 = alloca ptr, align 8
  store ptr %0, ptr %2, align 8
  %3 = load ptr, ptr %2, align 8
  %4 = call i64 @temp_idx(ptr noundef %3)
  %5 = load ptr, ptr %2, align 8
  %6 = call align 8 ptr @llvm.threadlocal.address.p0(ptr align 8 @tcg_ctx)
  %7 = load ptr, ptr %6, align 8
  %8 = ptrtoint ptr %5 to i64
  %9 = ptrtoint ptr %7 to i64
  %10 = sub i64 %8, %9
  %11 = inttoptr i64 %10 to ptr
  ret ptr %11
}

; Function Attrs: nounwind sspstrong uwtable
define internal void @check_max_alignment(i32 noundef %0) #0 {
  %2 = alloca i32, align 4
  store i32 %0, ptr %2, align 4
  %3 = load i8, ptr @tcg_use_softmmu, align 1, !range !5, !noundef !6
  %4 = trunc i8 %3 to i1
  br i1 %4, label %5, label %18

5:                                                ; preds = %1
  br label %6

6:                                                ; preds = %5
  %7 = load i32, ptr %2, align 4
  %8 = add i32 %7, 5
  %9 = call align 8 ptr @llvm.threadlocal.address.p0(ptr align 8 @tcg_ctx)
  %10 = load ptr, ptr %9, align 8
  %11 = getelementptr inbounds nuw %struct.TCGContext, ptr %10, i32 0, i32 12
  %12 = load i8, ptr %11, align 4
  %13 = zext i8 %12 to i32
  %14 = icmp ule i32 %8, %13
  br i1 %14, label %16, label %15

15:                                               ; preds = %6
  unreachable

16:                                               ; preds = %6
  br label %17

17:                                               ; preds = %16
  br label %18

18:                                               ; preds = %17, %1
  ret void
}

; Function Attrs: inlinehint nounwind sspstrong uwtable
define internal i32 @memop_alignment_bits(i32 noundef %0) #5 {
  %2 = alloca i32, align 4
  %3 = alloca i32, align 4
  store i32 %0, ptr %2, align 4
  call void @llvm.lifetime.start.p0(i64 4, ptr %3) #7
  %4 = load i32, ptr %2, align 4
  %5 = and i32 %4, 224
  store i32 %5, ptr %3, align 4
  %6 = load i32, ptr %3, align 4
  %7 = icmp eq i32 %6, 0
  br i1 %7, label %8, label %9

8:                                                ; preds = %1
  store i32 0, ptr %3, align 4
  br label %19

9:                                                ; preds = %1
  %10 = load i32, ptr %3, align 4
  %11 = icmp eq i32 %10, 224
  br i1 %11, label %12, label %15

12:                                               ; preds = %9
  %13 = load i32, ptr %2, align 4
  %14 = and i32 %13, 7
  store i32 %14, ptr %3, align 4
  br label %18

15:                                               ; preds = %9
  %16 = load i32, ptr %3, align 4
  %17 = lshr i32 %16, 5
  store i32 %17, ptr %3, align 4
  br label %18

18:                                               ; preds = %15, %12
  br label %19

19:                                               ; preds = %18, %8
  %20 = load i32, ptr %3, align 4
  call void @llvm.lifetime.end.p0(i64 4, ptr %3) #7
  ret i32 %20
}

; Function Attrs: inlinehint nounwind sspstrong uwtable
define internal void @gen_helper_exit_atomic(ptr noundef %0) #5 {
  %2 = alloca ptr, align 8
  store ptr %0, ptr %2, align 8
  %3 = load ptr, ptr @helper_info_exit_atomic, align 8
  %4 = load ptr, ptr %2, align 8
  %5 = call ptr @tcgv_ptr_temp(ptr noundef %4)
  call void @tcg_gen_call1(ptr noundef %3, ptr noundef @helper_info_exit_atomic, ptr noundef null, ptr noundef %5)
  ret void
}

; Function Attrs: nounwind sspstrong uwtable
define internal void @maybe_free_addr64(ptr noundef %0) #0 {
  %2 = alloca ptr, align 8
  store ptr %0, ptr %2, align 8
  %3 = call align 8 ptr @llvm.threadlocal.address.p0(ptr align 8 @tcg_ctx)
  %4 = load ptr, ptr %3, align 8
  %5 = getelementptr inbounds nuw %struct.TCGContext, ptr %4, i32 0, i32 10
  %6 = load i32, ptr %5, align 4
  %7 = icmp eq i32 %6, 0
  br i1 %7, label %8, label %10

8:                                                ; preds = %1
  %9 = load ptr, ptr %2, align 8
  call void @tcg_temp_free_i64(ptr noundef %9)
  br label %10

10:                                               ; preds = %8, %1
  ret void
}

; Function Attrs: nounwind sspstrong uwtable
define internal ptr @maybe_extend_addr64(ptr noundef %0) #0 {
  %2 = alloca ptr, align 8
  %3 = alloca ptr, align 8
  %4 = alloca ptr, align 8
  store ptr %0, ptr %3, align 8
  %5 = call align 8 ptr @llvm.threadlocal.address.p0(ptr align 8 @tcg_ctx)
  %6 = load ptr, ptr %5, align 8
  %7 = getelementptr inbounds nuw %struct.TCGContext, ptr %6, i32 0, i32 10
  %8 = load i32, ptr %7, align 4
  %9 = icmp eq i32 %8, 0
  br i1 %9, label %10, label %16

10:                                               ; preds = %1
  call void @llvm.lifetime.start.p0(i64 8, ptr %4) #7
  %11 = call ptr @tcg_temp_ebb_new_i64()
  store ptr %11, ptr %4, align 8
  %12 = load ptr, ptr %4, align 8
  %13 = load ptr, ptr %3, align 8
  %14 = call ptr @temp_tcgv_i32(ptr noundef %13)
  call void @tcg_gen_extu_i32_i64(ptr noundef %12, ptr noundef %14)
  %15 = load ptr, ptr %4, align 8
  store ptr %15, ptr %2, align 8
  call void @llvm.lifetime.end.p0(i64 8, ptr %4) #7
  br label %19

16:                                               ; preds = %1
  %17 = load ptr, ptr %3, align 8
  %18 = call ptr @temp_tcgv_i64(ptr noundef %17)
  store ptr %18, ptr %2, align 8
  br label %19

19:                                               ; preds = %16, %10
  %20 = load ptr, ptr %2, align 8
  ret ptr %20
}

; Function Attrs: inlinehint nounwind sspstrong uwtable
define internal i32 @make_memop_idx(i32 noundef %0, i32 noundef %1) #5 {
  %3 = alloca i32, align 4
  %4 = alloca i32, align 4
  store i32 %0, ptr %3, align 4
  store i32 %1, ptr %4, align 4
  %5 = load i32, ptr %3, align 4
  %6 = shl i32 %5, 4
  %7 = load i32, ptr %4, align 4
  %8 = or i32 %6, %7
  ret i32 %8
}

; Function Attrs: nounwind sspstrong uwtable
define internal i32 @tcg_canonicalize_memop(i32 noundef %0, i1 noundef zeroext %1, i1 noundef zeroext %2) #0 {
  %4 = alloca i32, align 4
  %5 = alloca i8, align 1
  %6 = alloca i8, align 1
  %7 = alloca i32, align 4
  store i32 %0, ptr %4, align 4
  %8 = zext i1 %1 to i8
  store i8 %8, ptr %5, align 1
  %9 = zext i1 %2 to i8
  store i8 %9, ptr %6, align 1
  call void @llvm.lifetime.start.p0(i64 4, ptr %7) #7
  %10 = load i32, ptr %4, align 4
  %11 = call i32 @memop_alignment_bits(i32 noundef %10)
  store i32 %11, ptr %7, align 4
  %12 = load i32, ptr %7, align 4
  call void @check_max_alignment(i32 noundef %12)
  %13 = load i32, ptr %7, align 4
  %14 = load i32, ptr %4, align 4
  %15 = and i32 %14, 7
  %16 = icmp eq i32 %13, %15
  br i1 %16, label %17, label %21

17:                                               ; preds = %3
  %18 = load i32, ptr %4, align 4
  %19 = and i32 %18, -225
  %20 = or i32 %19, 224
  store i32 %20, ptr %4, align 4
  br label %21

21:                                               ; preds = %17, %3
  %22 = load i32, ptr %4, align 4
  %23 = and i32 %22, 7
  switch i32 %23, label %41 [
    i32 0, label %24
    i32 1, label %45
    i32 2, label %27
    i32 3, label %34
  ]

24:                                               ; preds = %21
  %25 = load i32, ptr %4, align 4
  %26 = and i32 %25, -17
  store i32 %26, ptr %4, align 4
  br label %45

27:                                               ; preds = %21
  %28 = load i8, ptr %5, align 1, !range !5, !noundef !6
  %29 = trunc i8 %28 to i1
  br i1 %29, label %33, label %30

30:                                               ; preds = %27
  %31 = load i32, ptr %4, align 4
  %32 = and i32 %31, -9
  store i32 %32, ptr %4, align 4
  br label %33

33:                                               ; preds = %30, %27
  br label %45

34:                                               ; preds = %21
  %35 = load i8, ptr %5, align 1, !range !5, !noundef !6
  %36 = trunc i8 %35 to i1
  br i1 %36, label %37, label %40

37:                                               ; preds = %34
  %38 = load i32, ptr %4, align 4
  %39 = and i32 %38, -9
  store i32 %39, ptr %4, align 4
  br label %45

40:                                               ; preds = %34
  br label %41

41:                                               ; preds = %21, %40
  br label %42

42:                                               ; preds = %41
  call void @g_assertion_message_expr(ptr noundef null, ptr noundef @.str, i32 noundef 76, ptr noundef @__func__.tcg_canonicalize_memop, ptr noundef null) #8
  unreachable

43:                                               ; No predecessors!
  br label %44

44:                                               ; preds = %43
  br label %45

45:                                               ; preds = %44, %37, %33, %21, %24
  %46 = load i8, ptr %6, align 1, !range !5, !noundef !6
  %47 = trunc i8 %46 to i1
  br i1 %47, label %48, label %51

48:                                               ; preds = %45
  %49 = load i32, ptr %4, align 4
  %50 = and i32 %49, -9
  store i32 %50, ptr %4, align 4
  br label %51

51:                                               ; preds = %48, %45
  %52 = call align 8 ptr @llvm.threadlocal.address.p0(ptr align 8 @tcg_ctx)
  %53 = load ptr, ptr %52, align 8
  %54 = getelementptr inbounds nuw %struct.TCGContext, ptr %53, i32 0, i32 21
  %55 = load ptr, ptr %54, align 8
  %56 = getelementptr inbounds nuw %struct.TranslationBlock, ptr %55, i32 0, i32 3
  %57 = load i32, ptr %56, align 4
  %58 = and i32 %57, 32768
  %59 = icmp ne i32 %58, 0
  br i1 %59, label %65, label %60

60:                                               ; preds = %51
  %61 = load i32, ptr %4, align 4
  %62 = and i32 %61, -1793
  store i32 %62, ptr %4, align 4
  %63 = load i32, ptr %4, align 4
  %64 = or i32 %63, 1280
  store i32 %64, ptr %4, align 4
  br label %65

65:                                               ; preds = %60, %51
  %66 = load i32, ptr %4, align 4
  call void @llvm.lifetime.end.p0(i64 4, ptr %7) #7
  ret i32 %66
}

; Function Attrs: nounwind sspstrong uwtable
define internal void @tcg_gen_atomic_cmpxchg_i64_int(ptr noundef %0, ptr noundef %1, ptr noundef %2, ptr noundef %3, i64 noundef %4, i32 noundef %5) #0 {
  %7 = alloca ptr, align 8
  %8 = alloca ptr, align 8
  %9 = alloca ptr, align 8
  %10 = alloca ptr, align 8
  %11 = alloca i64, align 8
  %12 = alloca i32, align 4
  %13 = alloca ptr, align 8
  %14 = alloca i32, align 4
  %15 = alloca ptr, align 8
  %16 = alloca i32, align 4
  %17 = alloca ptr, align 8
  %18 = alloca ptr, align 8
  %19 = alloca ptr, align 8
  store ptr %0, ptr %7, align 8
  store ptr %1, ptr %8, align 8
  store ptr %2, ptr %9, align 8
  store ptr %3, ptr %10, align 8
  store i64 %4, ptr %11, align 8
  store i32 %5, ptr %12, align 4
  %20 = call align 8 ptr @llvm.threadlocal.address.p0(ptr align 8 @tcg_ctx)
  %21 = load ptr, ptr %20, align 8
  %22 = getelementptr inbounds nuw %struct.TCGContext, ptr %21, i32 0, i32 21
  %23 = load ptr, ptr %22, align 8
  %24 = getelementptr inbounds nuw %struct.TranslationBlock, ptr %23, i32 0, i32 3
  %25 = load i32, ptr %24, align 4
  %26 = and i32 %25, 32768
  %27 = icmp ne i32 %26, 0
  br i1 %27, label %35, label %28

28:                                               ; preds = %6
  %29 = load ptr, ptr %7, align 8
  %30 = load ptr, ptr %8, align 8
  %31 = load ptr, ptr %9, align 8
  %32 = load ptr, ptr %10, align 8
  %33 = load i64, ptr %11, align 8
  %34 = load i32, ptr %12, align 4
  call void @tcg_gen_nonatomic_cmpxchg_i64_int(ptr noundef %29, ptr noundef %30, ptr noundef %31, ptr noundef %32, i64 noundef %33, i32 noundef %34)
  br label %97

35:                                               ; preds = %6
  %36 = load i32, ptr %12, align 4
  %37 = and i32 %36, 7
  %38 = icmp eq i32 %37, 3
  br i1 %38, label %39, label %69

39:                                               ; preds = %35
  call void @llvm.lifetime.start.p0(i64 8, ptr %13) #7
  store ptr null, ptr %13, align 8, !annotation !4
  %40 = load i32, ptr %12, align 4
  %41 = call i32 @tcg_canonicalize_memop(i32 noundef %40, i1 noundef zeroext true, i1 noundef zeroext false)
  store i32 %41, ptr %12, align 4
  %42 = load i32, ptr %12, align 4
  %43 = and i32 %42, 23
  %44 = zext i32 %43 to i64
  %45 = getelementptr inbounds nuw [24 x ptr], ptr @table_cmpxchg, i64 0, i64 %44
  %46 = load ptr, ptr %45, align 8
  store ptr %46, ptr %13, align 8
  %47 = load ptr, ptr %13, align 8
  %48 = icmp ne ptr %47, null
  br i1 %48, label %49, label %65

49:                                               ; preds = %39
  call void @llvm.lifetime.start.p0(i64 4, ptr %14) #7
  %50 = load i32, ptr %12, align 4
  %51 = load i64, ptr %11, align 8
  %52 = trunc i64 %51 to i32
  %53 = call i32 @make_memop_idx(i32 noundef %50, i32 noundef %52)
  store i32 %53, ptr %14, align 4
  call void @llvm.lifetime.start.p0(i64 8, ptr %15) #7
  %54 = load ptr, ptr %8, align 8
  %55 = call ptr @maybe_extend_addr64(ptr noundef %54)
  store ptr %55, ptr %15, align 8
  %56 = load ptr, ptr %13, align 8
  %57 = load ptr, ptr %7, align 8
  %58 = load ptr, ptr @tcg_env, align 8
  %59 = load ptr, ptr %15, align 8
  %60 = load ptr, ptr %9, align 8
  %61 = load ptr, ptr %10, align 8
  %62 = load i32, ptr %14, align 4
  %63 = call ptr @tcg_constant_i32(i32 noundef %62)
  call void %56(ptr noundef %57, ptr noundef %58, ptr noundef %59, ptr noundef %60, ptr noundef %61, ptr noundef %63)
  %64 = load ptr, ptr %15, align 8
  call void @maybe_free_addr64(ptr noundef %64)
  store i32 1, ptr %16, align 4
  call void @llvm.lifetime.end.p0(i64 8, ptr %15) #7
  call void @llvm.lifetime.end.p0(i64 4, ptr %14) #7
  br label %68

65:                                               ; preds = %39
  %66 = load ptr, ptr @tcg_env, align 8
  call void @gen_helper_exit_atomic(ptr noundef %66)
  %67 = load ptr, ptr %7, align 8
  call void @tcg_gen_movi_i64(ptr noundef %67, i64 noundef 0)
  store i32 1, ptr %16, align 4
  br label %68

68:                                               ; preds = %65, %49
  call void @llvm.lifetime.end.p0(i64 8, ptr %13) #7
  br label %97

69:                                               ; preds = %35
  call void @llvm.lifetime.start.p0(i64 8, ptr %17) #7
  %70 = call ptr @tcg_temp_ebb_new_i32()
  store ptr %70, ptr %17, align 8
  call void @llvm.lifetime.start.p0(i64 8, ptr %18) #7
  %71 = call ptr @tcg_temp_ebb_new_i32()
  store ptr %71, ptr %18, align 8
  call void @llvm.lifetime.start.p0(i64 8, ptr %19) #7
  %72 = call ptr @tcg_temp_ebb_new_i32()
  store ptr %72, ptr %19, align 8
  %73 = load ptr, ptr %17, align 8
  %74 = load ptr, ptr %9, align 8
  call void @tcg_gen_extrl_i64_i32(ptr noundef %73, ptr noundef %74)
  %75 = load ptr, ptr %18, align 8
  %76 = load ptr, ptr %10, align 8
  call void @tcg_gen_extrl_i64_i32(ptr noundef %75, ptr noundef %76)
  %77 = load ptr, ptr %19, align 8
  %78 = load ptr, ptr %8, align 8
  %79 = load ptr, ptr %17, align 8
  %80 = load ptr, ptr %18, align 8
  %81 = load i64, ptr %11, align 8
  %82 = load i32, ptr %12, align 4
  %83 = and i32 %82, -9
  call void @tcg_gen_atomic_cmpxchg_i32_int(ptr noundef %77, ptr noundef %78, ptr noundef %79, ptr noundef %80, i64 noundef %81, i32 noundef %83)
  %84 = load ptr, ptr %17, align 8
  call void @tcg_temp_free_i32(ptr noundef %84)
  %85 = load ptr, ptr %18, align 8
  call void @tcg_temp_free_i32(ptr noundef %85)
  %86 = load ptr, ptr %7, align 8
  %87 = load ptr, ptr %19, align 8
  call void @tcg_gen_extu_i32_i64(ptr noundef %86, ptr noundef %87)
  %88 = load ptr, ptr %19, align 8
  call void @tcg_temp_free_i32(ptr noundef %88)
  %89 = load i32, ptr %12, align 4
  %90 = and i32 %89, 8
  %91 = icmp ne i32 %90, 0
  br i1 %91, label %92, label %96

92:                                               ; preds = %69
  %93 = load ptr, ptr %7, align 8
  %94 = load ptr, ptr %7, align 8
  %95 = load i32, ptr %12, align 4
  call void @tcg_gen_ext_i64(ptr noundef %93, ptr noundef %94, i32 noundef %95)
  br label %96

96:                                               ; preds = %92, %69
  call void @llvm.lifetime.end.p0(i64 8, ptr %19) #7
  call void @llvm.lifetime.end.p0(i64 8, ptr %18) #7
  call void @llvm.lifetime.end.p0(i64 8, ptr %17) #7
  br label %97

97:                                               ; preds = %96, %68, %28
  ret void
}

; Function Attrs: nounwind sspstrong uwtable
define dso_local void @tcg_gen_atomic_cmpxchg_i64_chk(ptr noundef %0, ptr noundef %1, ptr noundef %2, ptr noundef %3, i64 noundef %4, i32 noundef %5, i32 noundef %6) #0 {
  %8 = alloca ptr, align 8
  %9 = alloca ptr, align 8
  %10 = alloca ptr, align 8
  %11 = alloca ptr, align 8
  %12 = alloca i64, align 8
  %13 = alloca i32, align 4
  %14 = alloca i32, align 4
  store ptr %0, ptr %8, align 8
  store ptr %1, ptr %9, align 8
  store ptr %2, ptr %10, align 8
  store ptr %3, ptr %11, align 8
  store i64 %4, ptr %12, align 8
  store i32 %5, ptr %13, align 4
  store i32 %6, ptr %14, align 4
  br label %15

15:                                               ; preds = %7
  %16 = load i32, ptr %14, align 4
  %17 = call align 8 ptr @llvm.threadlocal.address.p0(ptr align 8 @tcg_ctx)
  %18 = load ptr, ptr %17, align 8
  %19 = getelementptr inbounds nuw %struct.TCGContext, ptr %18, i32 0, i32 10
  %20 = load i32, ptr %19, align 4
  %21 = icmp eq i32 %16, %20
  br i1 %21, label %23, label %22

22:                                               ; preds = %15
  unreachable

23:                                               ; preds = %15
  br label %24

24:                                               ; preds = %23
  br label %25

25:                                               ; preds = %24
  %26 = load i32, ptr %13, align 4
  %27 = and i32 %26, 7
  %28 = icmp ule i32 %27, 3
  br i1 %28, label %30, label %29

29:                                               ; preds = %25
  unreachable

30:                                               ; preds = %25
  br label %31

31:                                               ; preds = %30
  %32 = load ptr, ptr %8, align 8
  %33 = load ptr, ptr %9, align 8
  %34 = load ptr, ptr %10, align 8
  %35 = load ptr, ptr %11, align 8
  %36 = load i64, ptr %12, align 8
  %37 = load i32, ptr %13, align 4
  call void @tcg_gen_atomic_cmpxchg_i64_int(ptr noundef %32, ptr noundef %33, ptr noundef %34, ptr noundef %35, i64 noundef %36, i32 noundef %37)
  ret void
}