; Function Attrs: nounwind sspstrong uwtable
define dso_local void @tcg_gen_atomic_cmpxchg_i64_chk(ptr noundef %0, ptr noundef %1, ptr noundef %2, ptr noundef %3, i64 noundef %4, i32 noundef %5, i32 noundef %6) local_unnamed_addr #0 {
  %8 = tail call align 8 ptr @llvm.threadlocal.address.p0(ptr align 8 @tcg_ctx)
  %9 = load ptr, ptr %8, align 8
  %10 = getelementptr inbounds nuw i8, ptr %9, i64 60
  %11 = load i32, ptr %10, align 4
  %12 = icmp eq i32 %6, %11
  tail call void @llvm.assume(i1 %12)
  %13 = and i32 %5, 4
  %14 = icmp eq i32 %13, 0
  tail call void @llvm.assume(i1 %14)
  %15 = getelementptr inbounds nuw i8, ptr %9, i64 112
  %16 = load ptr, ptr %15, align 8
  %17 = getelementptr inbounds nuw i8, ptr %16, i64 20
  %18 = load i32, ptr %17, align 4
  %19 = and i32 %18, 32768
  %.not.i = icmp eq i32 %19, 0
  br i1 %.not.i, label %20, label %21

20:                                               ; preds = %7
  tail call fastcc void @tcg_gen_nonatomic_cmpxchg_i64_int(ptr noundef %0, ptr noundef %1, ptr noundef %2, ptr noundef %3, i64 noundef %4, i32 noundef %5)
  br label %tcg_gen_atomic_cmpxchg_i64_int.exit

21:                                               ; preds = %7
  %22 = and i32 %5, 3
  %23 = icmp eq i32 %22, 3
  br i1 %23, label %24, label %67

24:                                               ; preds = %21
  %25 = and i32 %5, 224
  %trunc.i.i.i = trunc nuw i32 %25 to i8
  switch i8 %trunc.i.i.i, label %27 [
    i8 0, label %memop_alignment_bits.exit.i.i
    i8 -32, label %26
  ]

26:                                               ; preds = %24
  br label %memop_alignment_bits.exit.i.i

27:                                               ; preds = %24
  %28 = lshr exact i32 %25, 5
  br label %memop_alignment_bits.exit.i.i

memop_alignment_bits.exit.i.i:                    ; preds = %27, %26, %24
  %.0.i.i.i = phi i32 [ 3, %26 ], [ %28, %27 ], [ 0, %24 ]
  %29 = load i8, ptr @tcg_use_softmmu, align 1, !range !4, !noundef !5
  %30 = trunc nuw i8 %29 to i1
  br i1 %30, label %31, label %check_max_alignment.exit.i.i

31:                                               ; preds = %memop_alignment_bits.exit.i.i
  %32 = add nuw nsw i32 %.0.i.i.i, 5
  %33 = getelementptr inbounds nuw i8, ptr %9, i64 68
  %34 = load i8, ptr %33, align 4
  %35 = zext i8 %34 to i32
  %36 = icmp samesign ule i32 %32, %35
  tail call void @llvm.assume(i1 %36)
  br label %check_max_alignment.exit.i.i

check_max_alignment.exit.i.i:                     ; preds = %31, %memop_alignment_bits.exit.i.i
  %37 = icmp eq i32 %.0.i.i.i, 3
  %38 = or i32 %5, 224
  %spec.select.i.i = select i1 %37, i32 %38, i32 %5
  %39 = and i32 %spec.select.i.i, 19
  %40 = zext nneg i32 %39 to i64
  %41 = getelementptr inbounds nuw [24 x ptr], ptr @table_cmpxchg, i64 0, i64 %40
  %42 = load ptr, ptr %41, align 8
  %43 = trunc i64 %4 to i32
  %44 = shl i32 %spec.select.i.i, 4
  %45 = and i32 %44, -208
  %46 = or i32 %45, %43
  %47 = icmp eq i32 %6, 0
  br i1 %47, label %48, label %55

48:                                               ; preds = %check_max_alignment.exit.i.i
  %49 = tail call ptr @tcg_temp_ebb_new_i64() #6
  %50 = load ptr, ptr %8, align 8
  %51 = ptrtoint ptr %1 to i64
  %52 = ptrtoint ptr %50 to i64
  %53 = sub i64 %51, %52
  %54 = inttoptr i64 %53 to ptr
  tail call void @tcg_gen_extu_i32_i64(ptr noundef %49, ptr noundef %54) #6
  br label %maybe_extend_addr64.exit.i

55:                                               ; preds = %check_max_alignment.exit.i.i
  %56 = ptrtoint ptr %1 to i64
  %57 = ptrtoint ptr %9 to i64
  %58 = sub i64 %56, %57
  %59 = inttoptr i64 %58 to ptr
  br label %maybe_extend_addr64.exit.i

maybe_extend_addr64.exit.i:                       ; preds = %55, %48
  %.0.i.i = phi ptr [ %49, %48 ], [ %59, %55 ]
  %60 = load ptr, ptr @tcg_env, align 8
  %61 = tail call ptr @tcg_constant_i32(i32 noundef %46) #6
  tail call void %42(ptr noundef %0, ptr noundef %60, ptr noundef %.0.i.i, ptr noundef %2, ptr noundef %3, ptr noundef %61) #6
  %62 = load ptr, ptr %8, align 8
  %63 = getelementptr inbounds nuw i8, ptr %62, i64 60
  %64 = load i32, ptr %63, align 4
  %65 = icmp eq i32 %64, 0
  br i1 %65, label %66, label %tcg_gen_atomic_cmpxchg_i64_int.exit

66:                                               ; preds = %maybe_extend_addr64.exit.i
  tail call void @tcg_temp_free_i64(ptr noundef %.0.i.i) #6
  br label %tcg_gen_atomic_cmpxchg_i64_int.exit

67:                                               ; preds = %21
  %68 = tail call ptr @tcg_temp_ebb_new_i32() #6
  %69 = tail call ptr @tcg_temp_ebb_new_i32() #6
  %70 = tail call ptr @tcg_temp_ebb_new_i32() #6
  tail call void @tcg_gen_extrl_i64_i32(ptr noundef %68, ptr noundef %2) #6
  tail call void @tcg_gen_extrl_i64_i32(ptr noundef %69, ptr noundef %3) #6
  %71 = and i32 %5, -13
  tail call fastcc void @tcg_gen_atomic_cmpxchg_i32_int(ptr noundef %70, ptr noundef %1, ptr noundef %68, ptr noundef %69, i64 noundef %4, i32 noundef %71)
  tail call void @tcg_temp_free_i32(ptr noundef %68) #6
  tail call void @tcg_temp_free_i32(ptr noundef %69) #6
  tail call void @tcg_gen_extu_i32_i64(ptr noundef %0, ptr noundef %70) #6
  tail call void @tcg_temp_free_i32(ptr noundef %70) #6
  %72 = and i32 %5, 8
  %.not39.i = icmp eq i32 %72, 0
  br i1 %.not39.i, label %tcg_gen_atomic_cmpxchg_i64_int.exit, label %73

73:                                               ; preds = %67
  tail call void @tcg_gen_ext_i64(ptr noundef %0, ptr noundef %0, i32 noundef %5)
  br label %tcg_gen_atomic_cmpxchg_i64_int.exit

tcg_gen_atomic_cmpxchg_i64_int.exit:              ; preds = %20, %maybe_extend_addr64.exit.i, %66, %67, %73
  ret void
}